; Function Attrs: mustprogress nounwind uwtable
define hidden void @_ZN22DiscoveredListIterator16complete_enqueueEv(ptr nocapture noundef nonnull readonly align 8 dereferenceable(96) %0) local_unnamed_addr #0 align 2 {
  %2 = getelementptr inbounds i8, ptr %0, i64 16
  %3 = load ptr, ptr %2, align 8
  %.not = icmp eq ptr %3, null
  br i1 %.not, label %35, label %4

4:                                                ; preds = %1
  %5 = load ptr, ptr %0, align 8
  %6 = load i8, ptr @UseCompressedOops, align 1
  %7 = trunc i8 %6 to i1
  br i1 %7, label %8, label %21

8:                                                ; preds = %4
  %9 = getelementptr inbounds i8, ptr %5, i64 8
  %10 = load i32, ptr %9, align 8
  %11 = icmp eq i32 %10, 0
  %12 = load ptr, ptr @_ZN14CompressedOops11_narrow_oopE, align 8
  %13 = ptrtoint ptr %12 to i64
  %14 = zext i32 %10 to i64
  %15 = load i32, ptr getelementptr inbounds (i8, ptr @_ZN14CompressedOops11_narrow_oopE, i64 8), align 8
  %16 = zext nneg i32 %15 to i64
  %17 = shl i64 %14, %16
  %18 = add i64 %17, %13
  %19 = inttoptr i64 %18 to ptr
  %20 = select i1 %11, ptr null, ptr %19
  br label %_ZNK14DiscoveredList4headEv.exit

21:                                               ; preds = %4
  %22 = load ptr, ptr %5, align 8
  br label %_ZNK14DiscoveredList4headEv.exit

_ZNK14DiscoveredList4headEv.exit:                 ; preds = %8, %21
  %23 = phi ptr [ %20, %8 ], [ %22, %21 ]
  %24 = tail call noundef ptr @_ZN8Universe27swap_reference_pending_listEP7oopDesc(ptr noundef %23) #17
  %25 = getelementptr inbounds i8, ptr %0, i64 72
  %26 = load ptr, ptr %25, align 8
  %27 = load ptr, ptr %2, align 8
  %28 = load i32, ptr @_ZN23java_lang_ref_Reference18_discovered_offsetE, align 4
  %29 = ptrtoint ptr %27 to i64
  %30 = sext i32 %28 to i64
  %31 = add nsw i64 %30, %29
  %32 = inttoptr i64 %31 to ptr
  %33 = load ptr, ptr %26, align 8
  %34 = load ptr, ptr %33, align 8
  tail call void %34(ptr noundef nonnull align 8 dereferenceable(8) %26, ptr noundef %32, ptr noundef %24) #17
  br label %35

35:                                               ; preds = %_ZNK14DiscoveredList4headEv.exit, %1
  ret void
}